((lp0
I0
aI2000
aI4000
aI6000
aI8000
aI10000
aI12000
aI14000
aI16000
aI18000
aI20000
aI22000
aI24000
aI26000
aI28000
aI30000
aI32000
aI34000
aI36000
aI40000
a(lp1
I19
aI39
aI55
aI53
aI74
aI84
aI80
aI66
aI86
aI89
aI94
aI93
aI97
aI97
aI99
aI96
aI100
aI100
aI100
aI100
a(lp2
I24
aI64
aI87
aI64
aI82
aI87
aI84
aI72
aI90
aI94
aI97
aI97
aI99
aI98
aI99
aI97
aI100
aI100
aI100
aI100
a(lp3
I11
aI59
aI50
aI81
aI91
aI98
aI70
aI71
aI84
aI98
aI82
aI98
aI92
aI99
aI100
aI100
aI100
aI100
aI100
aI100
a(lp4
I20
aI91
aI81
aI85
aI100
aI99
aI76
aI78
aI90
aI100
aI84
aI100
aI93
aI99
aI100
aI100
aI100
aI100
aI100
aI100
a(lp5
I0
aI0
aI0
aI4
aI1
aI0
aI1
aI31
aI14
aI4
aI0
aI0
aI0
aI0
aI0
aI0
aI0
aI0
aI0
aI0
a(lp6
I0
aI0
aI0
aI3
aI1
aI0
aI1
aI0
aI14
aI4
aI0
aI0
aI0
aI0
aI0
aI0
aI0
aI0
aI0
aI0
atp7
.