(dp0
S'correct_code_switches'
p1
(dp2
S'test'
p3
(lp4
I0
aI32
aI106
aI117
aI119
aI143
aI143
aI174
aI159
aI156
aI141
aI149
aI129
aI148
aI146
aI154
aI133
aI136
aI144
aI135
asS'training'
p5
(lp6
I0
aI70
aI285
aI308
aI268
aI354
aI336
aI369
aI342
aI333
aI337
aI351
aI335
aI345
aI319
aI358
aI321
aI319
aI339
aI326
assS'code_switches'
p7
(dp8
g3
(lp9
I232
aI203
aI292
aI246
aI278
aI268
aI259
aI321
aI263
aI260
aI243
aI267
aI248
aI251
aI250
aI253
aI243
aI250
aI248
aI245
asg5
(lp10
I489
aI417
aI610
aI573
aI582
aI603
aI564
aI668
aI570
aI554
aI564
aI597
aI596
aI604
aI560
aI599
aI555
aI561
aI581
aI566
assS'correct_sentences'
p11
(dp12
g3
(lp13
I0
aI216
aI626
aI713
aI647
aI777
aI744
aI727
aI797
aI825
aI816
aI804
aI797
aI806
aI821
aI826
aI819
aI832
aI839
aI843
asg5
(lp14
I0
aI482
aI1456
aI1609
aI1478
aI1697
aI1650
aI1610
aI1719
aI1725
aI1718
aI1698
aI1683
aI1689
aI1704
aI1708
aI1715
aI1703
aI1710
aI1714
assS'type_code_switches'
p15
(dp16
g3
(dp17
S'ES-verb'
p18
(lp19
I0
aI0
aI9
aI3
aI4
aI6
aI11
aI9
aI9
aI12
aI13
aI13
aI14
aI15
aI12
aI11
aI9
aI2
aI6
aI4
asS'verb_suffix-COG'
p20
(lp21
I0
aI1
aI1
aI4
aI6
aI3
aI2
aI1
aI1
aI2
aI2
aI2
aI0
aI1
aI1
aI2
aI0
aI0
aI0
aI0
asS'EN-alternational CS'
p22
(lp23
I0
aI4
aI12
aI31
aI27
aI54
aI60
aI78
aI67
aI73
aI57
aI61
aI57
aI60
aI66
aI65
aI63
aI62
aI65
aI63
asS'verb-ENES'
p24
(lp25
I0
aI0
aI6
aI3
aI3
aI5
aI9
aI7
aI6
aI9
aI11
aI9
aI11
aI13
aI9
aI9
aI8
aI2
aI5
aI3
asS'alternational CS-COG'
p26
(lp27
I0
aI3
aI13
aI19
aI20
aI29
aI34
aI44
aI35
aI40
aI32
aI37
aI32
aI31
aI36
aI36
aI36
aI37
aI39
aI39
asS'ES-noun'
p28
(lp29
I0
aI1
aI3
aI6
aI5
aI4
aI3
aI2
aI2
aI3
aI3
aI3
aI3
aI3
aI3
aI5
aI4
aI5
aI2
aI3
asS'ES-ing'
p30
(lp31
I0
aI10
aI7
aI6
aI0
aI3
aI1
aI8
aI7
aI5
aI6
aI3
aI1
aI9
aI12
aI12
aI9
aI9
aI12
aI12
asS'EN-noun'
p32
(lp33
I0
aI0
aI7
aI0
aI0
aI3
aI2
aI0
aI0
aI0
aI0
aI0
aI0
aI0
aI1
aI1
aI1
aI0
aI1
aI0
asS'verb_suffix-ENES'
p34
(lp35
I0
aI2
aI0
aI1
aI6
aI4
aI2
aI3
aI2
aI2
aI5
aI3
aI1
aI2
aI2
aI3
aI1
aI1
aI0
aI1
asS'EN-verb'
p36
(lp37
I0
aI0
aI2
aI0
aI0
aI0
aI0
aI0
aI0
aI0
aI0
aI0
aI0
aI0
aI0
aI0
aI0
aI0
aI0
aI0
asS'EN-verb_suffix'
p38
(lp39
I0
aI0
aI0
aI0
aI5
aI3
aI4
aI2
aI2
aI4
aI5
aI5
aI1
aI3
aI3
aI4
aI1
aI1
aI0
aI1
asS'inter-word switch-COG'
p40
(lp41
I0
aI5
aI7
aI10
aI13
aI4
aI5
aI7
aI3
aI6
aI6
aI5
aI3
aI4
aI3
aI4
aI4
aI3
aI3
aI3
asS'noun-ENES'
p42
(lp43
I0
aI1
aI4
aI3
aI1
aI4
aI2
aI2
aI1
aI2
aI2
aI2
aI1
aI2
aI2
aI3
aI3
aI3
aI1
aI0
asS'EN-ing'
p44
(lp45
I0
aI0
aI0
aI0
aI0
aI0
aI3
aI1
aI1
aI0
aI0
aI0
aI0
aI0
aI0
aI0
aI0
aI0
aI0
aI0
asS'verb-COG'
p46
(lp47
I0
aI0
aI5
aI0
aI1
aI1
aI2
aI2
aI3
aI3
aI2
aI4
aI3
aI2
aI3
aI2
aI1
aI0
aI1
aI1
asS'to-COG'
p48
(lp49
I0
aI0
aI0
aI0
aI0
aI0
aI0
aI0
aI0
aI0
aI0
aI0
aI0
aI0
aI1
aI1
aI0
aI0
aI0
aI0
asS'EN-det'
p50
(lp51
I0
aI2
aI12
aI21
aI21
aI27
aI33
aI30
aI38
aI24
aI21
aI22
aI22
aI23
aI19
aI22
aI16
aI23
aI19
aI15
asS'ES-inter-word switch'
p52
(lp53
I0
aI10
aI9
aI10
aI14
aI9
aI4
aI1
aI2
aI1
aI0
aI1
aI0
aI0
aI0
aI1
aI0
aI1
aI1
aI0
asS'ES-to'
p54
(lp55
I0
aI0
aI0
aI0
aI0
aI0
aI0
aI0
aI0
aI0
aI0
aI0
aI0
aI0
aI1
aI1
aI0
aI0
aI0
aI0
asS'alternational CS-ENES'
p56
(lp57
I0
aI3
aI31
aI40
aI31
aI47
aI38
aI64
aI55
aI57
aI48
aI46
aI45
aI52
aI52
aI53
aI48
aI50
aI52
aI52
asS'EN-inter-word switch'
p58
(lp59
I0
aI0
aI1
aI2
aI5
aI2
aI4
aI10
aI7
aI10
aI8
aI10
aI4
aI7
aI5
aI6
aI6
aI5
aI5
aI5
asS'inter-word switch-ENES'
p60
(lp61
I0
aI5
aI3
aI2
aI6
aI7
aI3
aI4
aI6
aI5
aI2
aI6
aI1
aI3
aI2
aI3
aI2
aI3
aI3
aI2
asS'ing-COG'
p62
(lp63
I0
aI7
aI4
aI1
aI0
aI1
aI3
aI4
aI5
aI3
aI3
aI1
aI1
aI4
aI6
aI5
aI4
aI4
aI6
aI6
asS'ing-ENES'
p64
(lp65
I0
aI3
aI3
aI5
aI0
aI2
aI1
aI5
aI3
aI2
aI3
aI2
aI0
aI5
aI6
aI7
aI5
aI5
aI6
aI6
asS'noun-COG'
p66
(lp67
I0
aI0
aI6
aI3
aI4
aI3
aI3
aI0
aI1
aI1
aI1
aI1
aI2
aI1
aI2
aI3
aI2
aI2
aI2
aI3
asS'ES-det'
p68
(lp69
I0
aI0
aI9
aI3
aI2
aI3
aI4
aI1
aI0
aI0
aI3
aI9
aI6
aI5
aI2
aI1
aI2
aI3
aI7
aI4
asS'ES-verb_suffix'
p70
(lp71
I0
aI3
aI1
aI5
aI7
aI4
aI0
aI2
aI1
aI0
aI2
aI0
aI0
aI0
aI0
aI1
aI0
aI0
aI0
aI0
asS'det-COG'
p72
(lp73
I0
aI2
aI14
aI15
aI12
aI18
aI20
aI20
aI22
aI15
aI14
aI17
aI16
aI15
aI13
aI14
aI13
aI15
aI15
aI12
asS'aux-COG'
p74
(lp75
I0
aI0
aI0
aI1
aI2
aI1
aI1
aI0
aI0
aI0
aI0
aI0
aI0
aI0
aI0
aI0
aI0
aI0
aI0
aI0
asS'ES-alternational CS'
p76
(lp77
I0
aI2
aI32
aI28
aI24
aI22
aI12
aI30
aI23
aI24
aI23
aI22
aI20
aI23
aI22
aI24
aI21
aI25
aI26
aI28
asS'det-ENES'
p78
(lp79
I0
aI0
aI7
aI9
aI11
aI12
aI17
aI11
aI16
aI9
aI10
aI14
aI12
aI13
aI8
aI9
aI5
aI11
aI11
aI7
asS'aux-ENES'
p80
(lp81
I0
aI0
aI2
aI1
aI3
aI2
aI1
aI0
aI0
aI0
aI0
aI0
aI1
aI0
aI0
aI0
aI1
aI0
aI0
aI0
asS'ES-aux'
p82
(lp83
I0
aI0
aI2
aI2
aI5
aI3
aI2
aI0
aI0
aI0
aI0
aI0
aI1
aI0
aI0
aI0
aI1
aI0
aI0
aI0
assg5
(dp84
S'ES-verb'
p85
(lp86
I0
aI0
aI21
aI8
aI16
aI29
aI30
aI35
aI28
aI33
aI41
aI41
aI45
aI43
aI24
aI37
aI21
aI14
aI18
aI16
asS'verb_suffix-COG'
p87
(lp88
I0
aI1
aI0
aI0
aI2
aI2
aI8
aI2
aI3
aI6
aI8
aI4
aI4
aI4
aI6
aI5
aI5
aI4
aI2
aI4
asS'EN-alternational CS'
p89
(lp90
I0
aI15
aI42
aI86
aI62
aI119
aI132
aI151
aI145
aI143
aI141
aI143
aI142
aI144
aI144
aI145
aI149
aI145
aI148
aI143
asS'verb-ENES'
p91
(lp92
I0
aI0
aI22
aI7
aI13
aI25
aI28
aI30
aI27
aI33
aI39
aI38
aI42
aI41
aI24
aI36
aI21
aI14
aI18
aI16
asS'alternational CS-COG'
p93
(lp94
I0
aI10
aI26
aI56
aI33
aI61
aI63
aI76
aI68
aI74
aI68
aI73
aI74
aI74
aI73
aI75
aI74
aI73
aI74
aI68
asS'ES-noun'
p95
(lp96
I0
aI2
aI4
aI6
aI7
aI7
aI3
aI2
aI5
aI3
aI2
aI1
aI2
aI3
aI3
aI5
aI1
aI0
aI2
aI3
asS'ES-ing'
p97
(lp98
I0
aI30
aI37
aI32
aI17
aI15
aI23
aI18
aI17
aI16
aI18
aI16
aI14
aI24
aI32
aI33
aI27
aI26
aI37
aI34
asS'EN-noun'
p99
(lp100
I0
aI0
aI21
aI1
aI1
aI3
aI6
aI1
aI1
aI1
aI0
aI2
aI1
aI0
aI0
aI1
aI1
aI0
aI2
aI2
asS'verb_suffix-ENES'
p101
(lp102
I0
aI4
aI8
aI12
aI13
aI7
aI3
aI2
aI4
aI6
aI6
aI4
aI3
aI2
aI6
aI4
aI3
aI2
aI1
aI0
asS'EN-verb'
p103
(lp104
I0
aI1
aI7
aI0
aI0
aI0
aI0
aI0
aI0
aI0
aI0
aI0
aI0
aI0
aI0
aI0
aI0
aI0
aI0
aI0
asS'EN-verb_suffix'
p105
(lp106
I0
aI0
aI0
aI0
aI10
aI5
aI11
aI4
aI4
aI11
aI13
aI5
aI5
aI4
aI10
aI8
aI6
aI6
aI2
aI4
asS'inter-word switch-COG'
p107
(lp108
I0
aI3
aI11
aI7
aI6
aI12
aI10
aI14
aI14
aI18
aI10
aI11
aI10
aI10
aI11
aI14
aI11
aI14
aI14
aI13
asS'noun-ENES'
p109
(lp110
I0
aI2
aI12
aI5
aI5
aI7
aI6
aI3
aI4
aI3
aI2
aI2
aI2
aI2
aI2
aI2
aI1
aI0
aI2
aI3
asS'EN-ing'
p111
(lp112
I0
aI0
aI0
aI0
aI0
aI0
aI5
aI1
aI0
aI0
aI0
aI0
aI0
aI0
aI0
aI0
aI0
aI0
aI0
aI0
asS'verb-COG'
p113
(lp114
I0
aI1
aI6
aI1
aI3
aI4
aI2
aI5
aI1
aI0
aI2
aI3
aI3
aI2
aI0
aI1
aI0
aI0
aI0
aI0
asS'to-COG'
p115
(lp116
I0
aI0
aI0
aI0
aI0
aI0
aI1
aI1
aI1
aI1
aI0
aI1
aI0
aI0
aI0
aI1
aI0
aI0
aI0
aI0
asS'EN-det'
p117
(lp118
I0
aI4
aI15
aI40
aI46
aI49
aI54
aI55
aI57
aI36
aI38
aI37
aI35
aI30
aI26
aI35
aI26
aI30
aI30
aI29
asS'ES-inter-word switch'
p119
(lp120
I0
aI9
aI22
aI16
aI22
aI19
aI12
aI8
aI9
aI7
aI7
aI7
aI9
aI10
aI11
aI13
aI13
aI15
aI12
aI11
asS'ES-to'
p121
(lp122
I0
aI0
aI0
aI0
aI0
aI0
aI1
aI1
aI1
aI1
aI0
aI1
aI0
aI0
aI0
aI1
aI0
aI0
aI0
aI0
asS'alternational CS-ENES'
p123
(lp124
I0
aI9
aI104
aI120
aI93
aI134
aI100
aI137
aI117
aI116
aI119
aI127
aI121
aI126
aI116
aI121
aI121
aI124
aI133
aI132
asS'EN-inter-word switch'
p125
(lp126
I0
aI0
aI2
aI3
aI3
aI17
aI16
aI25
aI26
aI29
aI20
aI25
aI16
aI20
aI19
aI25
aI22
aI23
aI21
aI19
asS'inter-word switch-ENES'
p127
(lp128
I0
aI6
aI13
aI12
aI19
aI24
aI18
aI19
aI21
aI18
aI17
aI21
aI15
aI20
aI19
aI24
aI24
aI24
aI19
aI17
asS'ing-COG'
p129
(lp130
I0
aI13
aI15
aI11
aI3
aI4
aI6
aI5
aI5
aI4
aI6
aI3
aI3
aI4
aI8
aI12
aI11
aI10
aI17
aI15
asS'ing-ENES'
p131
(lp132
I0
aI17
aI22
aI21
aI14
aI11
aI22
aI14
aI12
aI12
aI12
aI13
aI11
aI20
aI24
aI21
aI16
aI16
aI20
aI19
asS'noun-COG'
p133
(lp134
I0
aI0
aI13
aI2
aI3
aI3
aI3
aI0
aI2
aI1
aI0
aI1
aI1
aI1
aI1
aI4
aI1
aI0
aI2
aI2
asS'ES-det'
p135
(lp136
I0
aI0
aI16
aI12
aI10
aI6
aI10
aI5
aI5
aI5
aI10
aI13
aI11
aI9
aI3
aI3
aI7
aI8
aI7
aI8
asS'ES-verb_suffix'
p137
(lp138
I0
aI5
aI8
aI12
aI5
aI4
aI0
aI0
aI3
aI1
aI1
aI3
aI2
aI2
aI2
aI1
aI2
aI0
aI1
aI0
asS'det-COG'
p139
(lp140
I0
aI4
aI16
aI25
aI25
aI24
aI30
aI29
aI22
aI17
aI18
aI16
aI16
aI15
aI12
aI15
aI12
aI15
aI16
aI17
asS'ES-alternational CS'
p141
(lp142
I0
aI4
aI88
aI90
aI64
aI76
aI31
aI62
aI40
aI47
aI46
aI57
aI53
aI56
aI45
aI51
aI46
aI52
aI59
aI57
asS'det-ENES'
p143
(lp144
I0
aI0
aI15
aI27
aI31
aI31
aI34
aI31
aI40
aI24
aI30
aI34
aI30
aI24
aI17
aI23
aI21
aI23
aI21
aI20
asS'aux-ENES'
p145
(lp146
I0
aI0
aI2
aI2
aI5
aI5
aI2
aI1
aI1
aI0
aI0
aI0
aI0
aI0
aI0
aI0
aI0
aI0
aI0
aI0
asS'ES-aux'
p147
(lp148
I0
aI0
aI2
aI2
aI5
aI5
aI2
aI1
aI1
aI0
aI0
aI0
aI0
aI0
aI0
aI0
aI0
aI0
aI0
aI0
asssS'correct_pos'
p149
(dp150
g3
(lp151
I0
aI894
aI927
aI947
aI933
aI915
aI936
aI926
aI938
aI938
aI930
aI929
aI921
aI929
aI929
aI933
aI921
aI929
aI930
aI927
asg5
(lp152
I0
aI1765
aI1863
aI1884
aI1868
aI1844
aI1876
aI1846
aI1866
aI1855
aI1857
aI1846
aI1816
aI1823
aI1833
aI1838
aI1823
aI1814
aI1814
aI1808
assS'mse'
p153
(dp154
sS'pronoun_errors_flex'
p155
(dp156
g3
(lp157
I0
aI0
aI0
aI0
aI0
aI0
aI0
aI0
aI0
aI0
aI0
aI0
aI0
aI0
aI0
aI0
aI0
aI0
aI0
aI0
asg5
(lp158
I0
aI0
aI0
aI0
aI0
aI0
aI0
aI0
aI0
aI0
aI0
aI0
aI0
aI0
aI0
aI0
aI0
aI0
aI0
aI0
assS'pronoun_errors'
p159
(dp160
g3
(lp161
I0
aI0
aI0
aI0
aI0
aI0
aI0
aI0
aI0
aI0
aI0
aI0
aI0
aI0
aI0
aI0
aI0
aI0
aI0
aI0
asg5
(lp162
I0
aI0
aI0
aI0
aI0
aI0
aI0
aI0
aI0
aI0
aI0
aI0
aI0
aI0
aI0
aI0
aI0
aI0
aI0
aI0
ass.