((lp0
I0
aI2000
aI4000
aI6000
aI8000
aI10000
aI12000
aI14000
aI16000
aI18000
aI20000
aI22000
aI24000
aI26000
aI28000
aI30000
aI32000
aI34000
aI36000
aI40000
a(lp1
I18
aI64
aI82
aI86
aI89
aI88
aI85
aI90
aI98
aI89
aI88
aI79
aI98
aI99
aI100
aI99
aI99
aI100
aI99
aI100
a(lp2
I27
aI70
aI84
aI87
aI90
aI89
aI85
aI91
aI98
aI90
aI89
aI81
aI99
aI99
aI100
aI99
aI100
aI100
aI99
aI100
a(lp3
I37
aI75
aI92
aI82
aI85
aI97
aI88
aI100
aI99
aI71
aI53
aI96
aI100
aI100
aI100
aI100
aI100
aI100
aI100
aI100
a(lp4
I70
aI77
aI93
aI85
aI91
aI100
aI88
aI100
aI100
aI73
aI65
aI96
aI100
aI100
aI100
aI100
aI100
aI100
aI100
aI100
a(lp5
I0
aI0
aI0
aI0
aI0
aI0
aI0
aI0
aI0
aI0
aI0
aI0
aI0
aI0
aI0
aI0
aI0
aI0
aI0
aI0
a(lp6
I0
aI0
aI0
aI0
aI0
aI0
aI0
aI0
aI0
aI0
aI0
aI0
aI0
aI0
aI0
aI0
aI0
aI0
aI0
aI0
atp7
.