(dp0
S'correct_code_switches'
p1
(dp2
S'test'
p3
(lp4
I0
aI15
aI137
aI138
aI146
aI162
aI169
aI165
aI222
aI203
aI223
aI227
aI213
aI228
aI256
aI252
aI266
aI264
aI260
aI249
asS'training'
p5
(lp6
I0
aI22
aI293
aI300
aI344
aI349
aI366
aI355
aI468
aI445
aI466
aI466
aI440
aI486
aI544
aI506
aI567
aI534
aI548
aI526
assS'code_switches'
p7
(dp8
g3
(lp9
I294
aI177
aI274
aI215
aI230
aI293
aI293
aI238
aI302
aI307
aI324
aI322
aI293
aI299
aI331
aI308
aI331
aI333
aI341
aI325
asg5
(lp10
I470
aI311
aI544
aI421
aI490
aI557
aI552
aI486
aI586
aI608
aI637
aI628
aI566
aI606
aI653
aI607
aI671
aI656
aI667
aI644
assS'correct_sentences'
p11
(dp12
g3
(lp13
I0
aI172
aI619
aI769
aI791
aI769
aI798
aI860
aI861
aI865
aI858
aI875
aI896
aI909
aI900
aI914
aI906
aI895
aI892
aI898
asg5
(lp14
I0
aI362
aI1456
aI1723
aI1754
aI1709
aI1766
aI1865
aI1873
aI1846
aI1833
aI1833
aI1881
aI1888
aI1904
aI1908
aI1896
aI1889
aI1883
aI1893
assS'type_code_switches'
p15
(dp16
g3
(dp17
S'ES-verb'
p18
(lp19
I0
aI0
aI0
aI0
aI0
aI0
aI0
aI1
aI0
aI3
aI2
aI2
aI1
aI1
aI0
aI1
aI0
aI1
aI1
aI1
asS'to-ENES'
p20
(lp21
I0
aI0
aI2
aI0
aI0
aI0
aI0
aI0
aI0
aI0
aI0
aI0
aI0
aI1
aI2
aI1
aI0
aI0
aI0
aI1
asS'verb_suffix-COG'
p22
(lp23
I0
aI0
aI12
aI20
aI15
aI4
aI9
aI11
aI12
aI12
aI16
aI13
aI13
aI13
aI14
aI14
aI14
aI13
aI14
aI13
asS'EN-alternational CS'
p24
(lp25
I0
aI6
aI0
aI1
aI5
aI1
aI6
aI6
aI36
aI3
aI14
aI15
aI18
aI19
aI30
aI29
aI40
aI31
aI28
aI22
asS'EN-to'
p26
(lp27
I0
aI0
aI0
aI0
aI0
aI0
aI0
aI1
aI0
aI0
aI0
aI0
aI1
aI2
aI4
aI2
aI2
aI2
aI1
aI3
asS'alternational CS-COG'
p28
(lp29
I0
aI6
aI22
aI22
aI24
aI43
aI45
aI39
aI52
aI40
aI48
aI51
aI45
aI47
aI54
aI57
aI59
aI57
aI54
aI49
asS'ES-noun'
p30
(lp31
I0
aI0
aI1
aI0
aI0
aI0
aI1
aI0
aI1
aI0
aI0
aI3
aI0
aI1
aI0
aI1
aI0
aI1
aI0
aI0
asS'ES-ing'
p32
(lp33
I0
aI2
aI34
aI20
aI25
aI19
aI19
aI10
aI17
aI16
aI15
aI10
aI13
aI12
aI12
aI7
aI12
aI10
aI10
aI10
asS'EN-noun'
p34
(lp35
I0
aI0
aI0
aI0
aI0
aI0
aI3
aI2
aI0
aI1
aI1
aI1
aI1
aI1
aI1
aI0
aI1
aI1
aI1
aI2
asS'verb_suffix-ENES'
p36
(lp37
I0
aI0
aI18
aI22
aI20
aI11
aI14
aI12
aI14
aI25
aI26
aI23
aI20
aI20
aI26
aI22
aI20
aI20
aI22
aI19
asS'EN-aux'
p38
(lp39
I0
aI3
aI0
aI0
aI1
aI1
aI0
aI3
aI6
aI4
aI0
aI1
aI5
aI5
aI19
aI5
aI7
aI11
aI15
aI7
asS'EN-verb'
p40
(lp41
I0
aI0
aI1
aI2
aI0
aI0
aI0
aI1
aI6
aI0
aI1
aI1
aI3
aI4
aI4
aI4
aI2
aI4
aI5
aI3
asS'det-ENES'
p42
(lp43
I0
aI0
aI5
aI3
aI3
aI4
aI6
aI7
aI7
aI6
aI10
aI10
aI10
aI10
aI10
aI6
aI7
aI7
aI5
aI7
asS'inter-word switch-COG'
p44
(lp45
I0
aI1
aI8
aI0
aI4
aI11
aI5
aI9
aI5
aI12
aI7
aI11
aI11
aI12
aI14
aI18
aI21
aI20
aI20
aI19
asS'noun-ENES'
p46
(lp47
I0
aI0
aI1
aI0
aI0
aI0
aI4
aI0
aI0
aI1
aI1
aI1
aI1
aI1
aI1
aI0
aI1
aI1
aI1
aI2
asS'EN-ing'
p48
(lp49
I0
aI0
aI0
aI0
aI0
aI0
aI0
aI0
aI0
aI0
aI0
aI0
aI0
aI0
aI1
aI0
aI1
aI1
aI0
aI1
asS'verb-COG'
p50
(lp51
I0
aI0
aI1
aI2
aI0
aI0
aI0
aI0
aI4
aI0
aI1
aI1
aI1
aI2
aI2
aI2
aI1
aI2
aI2
aI2
asS'to-COG'
p52
(lp53
I0
aI0
aI0
aI0
aI0
aI0
aI0
aI1
aI0
aI0
aI0
aI0
aI1
aI1
aI2
aI1
aI2
aI2
aI1
aI2
asS'ES-inter-word switch'
p54
(lp55
I0
aI0
aI7
aI1
aI0
aI13
aI4
aI4
aI1
aI6
aI5
aI6
aI5
aI1
aI7
aI7
aI5
aI5
aI10
aI11
asS'alternational CS-ENES'
p56
(lp57
I0
aI2
aI31
aI44
aI48
aI59
aI56
aI60
aI86
aI72
aI80
aI83
aI74
aI83
aI84
aI95
aI98
aI94
aI92
aI89
asS'EN-inter-word switch'
p58
(lp59
I0
aI1
aI2
aI0
aI5
aI1
aI5
aI11
aI11
aI11
aI11
aI14
aI13
aI17
aI13
aI22
aI29
aI26
aI20
aI25
asS'inter-word switch-ENES'
p60
(lp61
I0
aI0
aI1
aI1
aI1
aI3
aI4
aI6
aI7
aI5
aI9
aI9
aI7
aI6
aI6
aI11
aI13
aI11
aI10
aI17
asS'ing-COG'
p62
(lp63
I0
aI2
aI17
aI9
aI10
aI11
aI9
aI4
aI9
aI8
aI8
aI5
aI7
aI6
aI6
aI3
aI6
aI4
aI4
aI4
asS'ing-ENES'
p64
(lp65
I0
aI0
aI17
aI11
aI15
aI8
aI10
aI6
aI8
aI8
aI7
aI5
aI6
aI6
aI7
aI4
aI7
aI7
aI6
aI7
asS'noun-COG'
p66
(lp67
I0
aI0
aI0
aI0
aI0
aI0
aI0
aI2
aI1
aI0
aI0
aI3
aI0
aI1
aI0
aI1
aI0
aI1
aI0
aI0
asS'ES-det'
p68
(lp69
I0
aI1
aI7
aI7
aI8
aI11
aI13
aI10
aI16
aI13
aI18
aI19
aI19
aI21
aI17
aI14
aI16
aI14
aI11
aI12
asS'verb-ENES'
p70
(lp71
I0
aI0
aI0
aI0
aI0
aI0
aI0
aI2
aI2
aI3
aI2
aI2
aI3
aI3
aI2
aI3
aI1
aI3
aI4
aI2
asS'ES-verb_suffix'
p72
(lp73
I0
aI0
aI30
aI42
aI35
aI15
aI23
aI23
aI26
aI37
aI42
aI36
aI33
aI33
aI40
aI36
aI34
aI33
aI36
aI32
asS'det-COG'
p74
(lp75
I0
aI1
aI2
aI4
aI5
aI7
aI7
aI3
aI9
aI7
aI8
aI9
aI9
aI11
aI7
aI8
aI9
aI7
aI6
aI5
asS'aux-COG'
p76
(lp77
I0
aI3
aI0
aI0
aI1
aI0
aI0
aI2
aI4
aI2
aI0
aI1
aI4
aI2
aI12
aI5
aI5
aI9
aI10
aI6
asS'ES-alternational CS'
p78
(lp79
I0
aI2
aI53
aI65
aI67
aI101
aI95
aI93
aI102
aI109
aI114
aI119
aI101
aI111
aI108
aI123
aI117
aI120
aI118
aI116
asS'ES-to'
p80
(lp81
I0
aI0
aI2
aI0
aI0
aI0
aI0
aI0
aI0
aI0
aI0
aI0
aI0
aI0
aI0
aI0
aI0
aI0
aI0
aI0
asS'aux-ENES'
p82
(lp83
I0
aI0
aI0
aI0
aI0
aI1
aI0
aI1
aI2
aI2
aI0
aI0
aI1
aI3
aI7
aI1
aI2
aI6
aI9
aI5
asS'ES-aux'
p84
(lp85
I0
aI0
aI0
aI0
aI0
aI0
aI0
aI0
aI0
aI0
aI0
aI0
aI0
aI0
aI0
aI1
aI0
aI4
aI4
aI4
assg5
(dp86
S'ES-verb'
p87
(lp88
I0
aI0
aI0
aI0
aI0
aI0
aI1
aI3
aI0
aI5
aI5
aI9
aI2
aI0
aI4
aI2
aI2
aI1
aI1
aI3
asS'to-ENES'
p89
(lp90
I0
aI0
aI3
aI0
aI0
aI0
aI0
aI0
aI0
aI0
aI0
aI2
aI1
aI3
aI0
aI1
aI0
aI1
aI1
aI0
asS'verb_suffix-COG'
p91
(lp92
I0
aI0
aI3
aI18
aI16
aI6
aI4
aI2
aI3
aI11
aI14
aI17
aI7
aI8
aI9
aI8
aI9
aI9
aI8
aI8
asS'EN-alternational CS'
p93
(lp94
I0
aI7
aI5
aI11
aI9
aI9
aI12
aI21
aI66
aI15
aI27
aI27
aI34
aI46
aI70
aI63
aI101
aI81
aI72
aI56
asS'EN-to'
p95
(lp96
I0
aI0
aI0
aI0
aI0
aI0
aI0
aI1
aI0
aI0
aI3
aI4
aI1
aI4
aI3
aI3
aI5
aI4
aI3
aI2
asS'alternational CS-COG'
p97
(lp98
I0
aI4
aI17
aI15
aI26
aI37
aI44
aI38
aI72
aI51
aI54
aI52
aI47
aI55
aI63
aI67
aI76
aI73
aI72
aI56
asS'ES-noun'
p99
(lp100
I0
aI0
aI1
aI0
aI4
aI2
aI0
aI0
aI1
aI2
aI5
aI0
aI0
aI2
aI0
aI1
aI1
aI0
aI2
aI1
asS'ES-ing'
p101
(lp102
I0
aI4
aI67
aI51
aI55
aI46
aI45
aI28
aI35
aI18
aI18
aI14
aI18
aI16
aI24
aI14
aI22
aI16
aI16
aI14
asS'EN-noun'
p103
(lp104
I0
aI1
aI4
aI2
aI3
aI2
aI5
aI5
aI2
aI1
aI1
aI0
aI0
aI2
aI2
aI5
aI4
aI4
aI7
aI9
asS'verb_suffix-ENES'
p105
(lp106
I0
aI0
aI81
aI83
aI83
aI40
aI25
aI32
aI51
aI42
aI50
aI46
aI58
aI57
aI60
aI56
aI54
aI55
aI57
aI54
asS'EN-aux'
p107
(lp108
I0
aI3
aI0
aI0
aI5
aI7
aI4
aI5
aI22
aI15
aI11
aI11
aI26
aI24
aI37
aI20
aI22
aI21
aI24
aI19
asS'EN-verb'
p109
(lp110
I0
aI1
aI2
aI3
aI2
aI0
aI3
aI0
aI7
aI2
aI5
aI3
aI3
aI6
aI6
aI8
aI6
aI7
aI9
aI6
asS'det-ENES'
p111
(lp112
I0
aI0
aI9
aI14
aI13
aI11
aI19
aI17
aI23
aI18
aI23
aI17
aI28
aI31
aI27
aI19
aI25
aI20
aI28
aI28
asS'inter-word switch-COG'
p113
(lp114
I0
aI2
aI6
aI2
aI4
aI9
aI12
aI13
aI10
aI17
aI12
aI23
aI15
aI21
aI26
aI26
aI39
aI34
aI34
aI41
asS'noun-ENES'
p115
(lp116
I0
aI0
aI1
aI0
aI4
aI3
aI5
aI2
aI1
aI2
aI3
aI0
aI0
aI1
aI1
aI3
aI2
aI4
aI6
aI7
asS'EN-ing'
p117
(lp118
I0
aI0
aI0
aI0
aI0
aI0
aI0
aI0
aI0
aI0
aI0
aI0
aI0
aI0
aI0
aI0
aI1
aI0
aI0
aI1
asS'verb-COG'
p119
(lp120
I0
aI1
aI1
aI2
aI1
aI0
aI1
aI0
aI3
aI2
aI4
aI6
aI1
aI3
aI5
aI5
aI4
aI3
aI4
aI5
asS'to-COG'
p121
(lp122
I0
aI0
aI2
aI0
aI0
aI0
aI0
aI1
aI0
aI0
aI3
aI2
aI1
aI2
aI4
aI3
aI5
aI3
aI2
aI2
asS'EN-det'
p123
(lp124
I0
aI0
aI0
aI0
aI0
aI0
aI0
aI0
aI0
aI0
aI0
aI0
aI0
aI0
aI0
aI0
aI2
aI0
aI0
aI0
asS'ES-inter-word switch'
p125
(lp126
I0
aI0
aI8
aI1
aI1
aI12
aI5
aI15
aI2
aI16
aI9
aI21
aI5
aI8
aI6
aI12
aI11
aI15
aI17
aI24
asS'alternational CS-ENES'
p127
(lp128
I0
aI3
aI80
aI96
aI117
aI162
aI178
aI178
aI209
aI226
aI233
aI226
aI194
aI220
aI231
aI212
aI238
aI225
aI223
aI224
asS'EN-inter-word switch'
p129
(lp130
I0
aI3
aI3
aI5
aI9
aI8
aI16
aI20
aI20
aI18
aI14
aI28
aI27
aI29
aI43
aI51
aI66
aI58
aI49
aI56
asS'inter-word switch-ENES'
p131
(lp132
I0
aI1
aI5
aI4
aI6
aI11
aI9
aI22
aI12
aI17
aI11
aI26
aI17
aI16
aI23
aI37
aI38
aI39
aI32
aI39
asS'ing-COG'
p133
(lp134
I0
aI1
aI16
aI7
aI10
aI10
aI9
aI5
aI9
aI8
aI8
aI6
aI7
aI5
aI8
aI1
aI2
aI2
aI1
aI1
asS'ing-ENES'
p135
(lp136
I0
aI3
aI51
aI44
aI45
aI36
aI36
aI23
aI26
aI10
aI10
aI8
aI11
aI11
aI16
aI13
aI21
aI14
aI15
aI14
asS'noun-COG'
p137
(lp138
I0
aI1
aI4
aI2
aI3
aI1
aI0
aI3
aI2
aI1
aI3
aI0
aI0
aI3
aI1
aI3
aI3
aI0
aI3
aI3
asS'ES-det'
p139
(lp140
I0
aI3
aI22
aI26
aI23
aI27
aI36
aI27
aI44
aI38
aI44
aI35
aI51
aI54
aI55
aI44
aI48
aI44
aI57
aI47
asS'verb-ENES'
p141
(lp142
I0
aI0
aI1
aI1
aI1
aI0
aI3
aI3
aI4
aI5
aI6
aI6
aI4
aI3
aI5
aI5
aI4
aI5
aI6
aI4
asS'ES-verb_suffix'
p143
(lp144
I0
aI0
aI84
aI101
aI99
aI46
aI29
aI34
aI54
aI53
aI64
aI63
aI65
aI65
aI69
aI64
aI63
aI64
aI65
aI62
asS'det-COG'
p145
(lp146
I0
aI3
aI13
aI12
aI10
aI16
aI17
aI10
aI21
aI20
aI21
aI18
aI23
aI23
aI28
aI25
aI25
aI24
aI29
aI19
asS'aux-COG'
p147
(lp148
I0
aI3
aI0
aI0
aI2
aI2
aI1
aI0
aI17
aI2
aI5
aI7
aI14
aI16
aI20
aI15
aI11
aI13
aI12
aI8
asS'ES-alternational CS'
p149
(lp150
I0
aI0
aI92
aI100
aI134
aI190
aI210
aI195
aI215
aI262
aI260
aI251
aI207
aI229
aI224
aI216
aI213
aI217
aI223
aI224
asS'ES-to'
p151
(lp152
I0
aI0
aI5
aI0
aI0
aI0
aI0
aI0
aI0
aI0
aI0
aI0
aI1
aI1
aI1
aI1
aI0
aI0
aI0
aI0
asS'aux-ENES'
p153
(lp154
I0
aI0
aI0
aI0
aI3
aI5
aI3
aI6
aI5
aI13
aI6
aI4
aI12
aI8
aI17
aI7
aI11
aI10
aI15
aI13
asS'ES-aux'
p155
(lp156
I0
aI0
aI0
aI0
aI0
aI0
aI0
aI1
aI0
aI0
aI0
aI0
aI0
aI0
aI0
aI2
aI0
aI2
aI3
aI2
asssS'correct_pos'
p157
(dp158
g3
(lp159
I0
aI919
aI974
aI994
aI996
aI994
aI993
aI996
aI994
aI978
aI979
aI955
aI971
aI987
aI988
aI988
aI993
aI990
aI989
aI988
asg5
(lp160
I0
aI1851
aI1990
aI1991
aI1986
aI1972
aI1983
aI1994
aI1990
aI1967
aI1966
aI1951
aI1957
aI1984
aI1984
aI1978
aI1978
aI1974
aI1973
aI1971
assS'mse'
p161
(dp162
sS'pronoun_errors_flex'
p163
(dp164
g3
(lp165
I0
aI0
aI0
aI0
aI0
aI0
aI0
aI0
aI0
aI0
aI0
aI0
aI0
aI0
aI0
aI0
aI0
aI0
aI0
aI0
asg5
(lp166
I0
aI0
aI0
aI0
aI0
aI0
aI0
aI0
aI0
aI0
aI0
aI0
aI0
aI0
aI0
aI0
aI0
aI0
aI0
aI0
assS'pronoun_errors'
p167
(dp168
g3
(lp169
I0
aI0
aI0
aI0
aI0
aI0
aI0
aI0
aI0
aI0
aI0
aI0
aI0
aI0
aI0
aI0
aI0
aI0
aI0
aI0
asg5
(lp170
I0
aI0
aI0
aI0
aI0
aI0
aI0
aI0
aI0
aI0
aI0
aI0
aI0
aI0
aI0
aI0
aI0
aI0
aI0
aI0
ass.