(dp0
S'correct_code_switches'
p1
(dp2
S'test'
p3
(lp4
I0
aI33
aI86
aI81
aI97
aI158
aI164
aI175
aI151
aI171
aI149
aI152
aI156
aI153
aI159
aI147
aI155
aI160
aI159
aI140
asS'training'
p5
(lp6
I0
aI56
aI174
aI165
aI223
aI364
aI349
aI384
aI322
aI395
aI330
aI340
aI364
aI400
aI380
aI363
aI350
aI372
aI382
aI328
assS'code_switches'
p7
(dp8
g3
(lp9
I250
aI284
aI239
aI234
aI292
aI341
aI305
aI308
aI266
aI298
aI272
aI272
aI273
aI263
aI263
aI247
aI240
aI249
aI241
aI207
asg5
(lp10
I443
aI585
aI464
aI434
aI581
aI698
aI623
aI621
aI529
aI613
aI536
aI541
aI536
aI554
aI544
aI515
aI475
aI497
aI507
aI435
assS'correct_sentences'
p11
(dp12
g3
(lp13
I0
aI144
aI724
aI742
aI721
aI747
aI803
aI817
aI827
aI816
aI840
aI839
aI840
aI836
aI845
aI847
aI867
aI859
aI876
aI884
asg5
(lp14
I0
aI261
aI1522
aI1576
aI1547
aI1605
aI1657
aI1713
aI1752
aI1750
aI1747
aI1752
aI1780
aI1795
aI1785
aI1793
aI1820
aI1830
aI1825
aI1834
assS'type_code_switches'
p15
(dp16
g3
(dp17
S'ES-verb'
p18
(lp19
I0
aI3
aI2
aI0
aI1
aI5
aI5
aI7
aI9
aI19
aI20
aI21
aI17
aI9
aI13
aI13
aI12
aI12
aI9
aI10
asS'to-ENES'
p20
(lp21
I0
aI0
aI0
aI0
aI0
aI0
aI0
aI0
aI1
aI0
aI0
aI0
aI0
aI0
aI0
aI0
aI0
aI0
aI0
aI0
asS'verb_suffix-COG'
p22
(lp23
I0
aI0
aI2
aI3
aI1
aI1
aI4
aI10
aI6
aI3
aI3
aI5
aI3
aI2
aI0
aI2
aI1
aI1
aI2
aI3
asS'EN-alternational CS'
p24
(lp25
I0
aI0
aI0
aI0
aI0
aI1
aI3
aI2
aI0
aI3
aI3
aI1
aI0
aI0
aI0
aI0
aI1
aI0
aI0
aI2
asS'verb-ENES'
p26
(lp27
I0
aI2
aI1
aI0
aI1
aI3
aI3
aI4
aI6
aI10
aI11
aI13
aI10
aI4
aI6
aI7
aI6
aI7
aI4
aI7
asS'alternational CS-COG'
p28
(lp29
I0
aI9
aI21
aI18
aI23
aI40
aI38
aI39
aI37
aI38
aI27
aI34
aI39
aI35
aI31
aI24
aI28
aI27
aI29
aI28
asS'ES-noun'
p30
(lp31
I0
aI0
aI0
aI1
aI2
aI2
aI2
aI1
aI2
aI2
aI4
aI1
aI4
aI4
aI4
aI5
aI6
aI5
aI2
aI3
asS'ES-ing'
p32
(lp33
I0
aI0
aI2
aI0
aI2
aI0
aI1
aI2
aI5
aI0
aI2
aI1
aI0
aI0
aI1
aI1
aI1
aI1
aI5
aI8
asS'EN-noun'
p34
(lp35
I0
aI0
aI2
aI0
aI2
aI5
aI6
aI3
aI3
aI6
aI3
aI6
aI2
aI0
aI0
aI1
aI1
aI1
aI2
aI2
asS'verb_suffix-ENES'
p36
(lp37
I0
aI0
aI0
aI2
aI1
aI2
aI9
aI6
aI10
aI10
aI6
aI3
aI4
aI4
aI6
aI3
aI5
aI4
aI5
aI3
asS'EN-aux'
p38
(lp39
I0
aI0
aI0
aI0
aI0
aI0
aI1
aI1
aI2
aI0
aI3
aI2
aI3
aI11
aI9
aI6
aI20
aI20
aI14
aI11
asS'EN-verb'
p40
(lp41
I0
aI0
aI0
aI0
aI0
aI0
aI0
aI0
aI0
aI0
aI0
aI0
aI0
aI0
aI0
aI0
aI0
aI1
aI1
aI0
asS'EN-verb_suffix'
p42
(lp43
I0
aI0
aI0
aI0
aI0
aI0
aI1
aI0
aI0
aI1
aI1
aI3
aI1
aI2
aI1
aI2
aI2
aI1
aI1
aI3
asS'inter-word switch-COG'
p44
(lp45
I0
aI8
aI15
aI18
aI17
aI24
aI21
aI20
aI15
aI13
aI10
aI12
aI10
aI10
aI13
aI11
aI13
aI11
aI11
aI8
asS'noun-ENES'
p46
(lp47
I0
aI0
aI2
aI0
aI3
aI5
aI6
aI4
aI4
aI7
aI5
aI5
aI5
aI2
aI2
aI3
aI6
aI4
aI3
aI4
asS'EN-ing'
p48
(lp49
I0
aI0
aI0
aI0
aI0
aI0
aI0
aI0
aI0
aI0
aI0
aI0
aI0
aI0
aI0
aI0
aI1
aI1
aI0
aI1
asS'verb-COG'
p50
(lp51
I0
aI1
aI1
aI0
aI0
aI2
aI2
aI3
aI3
aI9
aI9
aI8
aI7
aI5
aI7
aI6
aI6
aI6
aI6
aI3
asS'EN-det'
p52
(lp53
I0
aI0
aI0
aI0
aI0
aI3
aI2
aI3
aI2
aI3
aI4
aI3
aI2
aI2
aI1
aI1
aI1
aI1
aI1
aI1
asS'ES-inter-word switch'
p54
(lp55
I0
aI12
aI31
aI29
aI28
aI37
aI35
aI37
aI25
aI24
aI19
aI19
aI17
aI19
aI22
aI19
aI25
aI24
aI21
aI17
asS'ES-to'
p56
(lp57
I0
aI0
aI0
aI0
aI0
aI0
aI0
aI0
aI1
aI0
aI0
aI0
aI0
aI0
aI0
aI0
aI0
aI0
aI0
aI0
asS'alternational CS-ENES'
p58
(lp59
I0
aI9
aI26
aI26
aI35
aI62
aI61
aI65
aI47
aI64
aI49
aI48
aI53
aI58
aI59
aI59
aI42
aI51
aI57
aI40
asS'EN-inter-word switch'
p60
(lp61
I0
aI0
aI0
aI0
aI0
aI0
aI0
aI0
aI0
aI0
aI0
aI0
aI0
aI0
aI0
aI0
aI3
aI1
aI1
aI2
asS'inter-word switch-ENES'
p62
(lp63
I0
aI4
aI16
aI11
aI11
aI13
aI14
aI17
aI10
aI11
aI9
aI7
aI7
aI9
aI9
aI8
aI15
aI14
aI11
aI11
asS'ing-COG'
p64
(lp65
I0
aI0
aI1
aI0
aI1
aI0
aI0
aI1
aI1
aI0
aI1
aI1
aI0
aI0
aI0
aI0
aI1
aI0
aI1
aI4
asS'ing-ENES'
p66
(lp67
I0
aI0
aI1
aI0
aI1
aI0
aI1
aI1
aI4
aI0
aI1
aI0
aI0
aI0
aI1
aI1
aI1
aI2
aI4
aI5
asS'noun-COG'
p68
(lp69
I0
aI0
aI0
aI1
aI1
aI2
aI2
aI0
aI1
aI1
aI2
aI2
aI1
aI2
aI2
aI3
aI1
aI2
aI1
aI1
asS'ES-det'
p70
(lp71
I0
aI0
aI0
aI2
aI2
aI1
aI0
aI1
aI2
aI2
aI9
aI9
aI12
aI9
aI13
aI13
aI9
aI10
aI10
aI11
asS'ES-verb_suffix'
p72
(lp73
I0
aI0
aI2
aI5
aI2
aI3
aI12
aI16
aI16
aI12
aI8
aI5
aI6
aI4
aI5
aI3
aI4
aI4
aI6
aI3
asS'det-COG'
p74
(lp75
I0
aI0
aI0
aI0
aI2
aI3
aI1
aI2
aI1
aI2
aI8
aI7
aI7
aI6
aI9
aI9
aI6
aI7
aI7
aI5
asS'aux-COG'
p76
(lp77
I0
aI0
aI0
aI0
aI0
aI0
aI1
aI1
aI2
aI0
aI2
aI1
aI2
aI5
aI4
aI1
aI11
aI12
aI8
aI7
asS'ES-alternational CS'
p78
(lp79
I0
aI18
aI47
aI44
aI58
aI101
aI96
aI102
aI84
aI99
aI73
aI81
aI92
aI93
aI90
aI83
aI69
aI78
aI86
aI66
asS'det-ENES'
p80
(lp81
I0
aI0
aI0
aI2
aI0
aI1
aI1
aI2
aI3
aI3
aI5
aI5
aI7
aI5
aI5
aI5
aI4
aI4
aI4
aI7
asS'aux-ENES'
p82
(lp83
I0
aI0
aI0
aI0
aI0
aI0
aI0
aI0
aI0
aI0
aI1
aI1
aI1
aI6
aI5
aI5
aI9
aI8
aI6
aI4
assg5
(dp84
S'ES-verb'
p85
(lp86
I0
aI3
aI3
aI0
aI1
aI34
aI26
aI18
aI18
aI51
aI46
aI42
aI29
aI26
aI24
aI27
aI22
aI22
aI27
aI19
asS'to-ENES'
p87
(lp88
I0
aI0
aI0
aI0
aI0
aI0
aI0
aI0
aI0
aI2
aI0
aI1
aI2
aI2
aI2
aI2
aI0
aI0
aI1
aI1
asS'verb_suffix-COG'
p89
(lp90
I0
aI4
aI10
aI10
aI11
aI10
aI16
aI19
aI13
aI12
aI11
aI12
aI9
aI8
aI11
aI12
aI14
aI9
aI10
aI13
asS'EN-alternational CS'
p91
(lp92
I0
aI0
aI0
aI0
aI0
aI0
aI1
aI1
aI1
aI2
aI2
aI4
aI2
aI5
aI5
aI4
aI2
aI2
aI5
aI4
asS'verb-ENES'
p93
(lp94
I0
aI1
aI2
aI0
aI1
aI31
aI22
aI16
aI15
aI46
aI41
aI36
aI24
aI23
aI21
aI24
aI19
aI18
aI22
aI15
asS'alternational CS-COG'
p95
(lp96
I0
aI21
aI50
aI47
aI61
aI89
aI64
aI72
aI45
aI73
aI63
aI65
aI65
aI72
aI70
aI68
aI47
aI61
aI62
aI46
asS'ES-noun'
p97
(lp98
I0
aI1
aI2
aI6
aI4
aI3
aI7
aI3
aI7
aI4
aI3
aI2
aI5
aI5
aI7
aI7
aI6
aI4
aI7
aI4
asS'ES-ing'
p99
(lp100
I0
aI0
aI5
aI7
aI4
aI2
aI5
aI12
aI18
aI1
aI7
aI7
aI10
aI12
aI6
aI11
aI19
aI17
aI19
aI26
asS'EN-noun'
p101
(lp102
I0
aI0
aI0
aI0
aI1
aI2
aI3
aI2
aI3
aI3
aI3
aI4
aI2
aI1
aI0
aI1
aI0
aI0
aI0
aI0
asS'verb_suffix-ENES'
p103
(lp104
I0
aI3
aI11
aI10
aI6
aI9
aI20
aI26
aI22
aI11
aI11
aI12
aI7
aI7
aI8
aI7
aI9
aI6
aI7
aI9
asS'EN-aux'
p105
(lp106
I0
aI0
aI0
aI0
aI0
aI0
aI4
aI4
aI5
aI1
aI3
aI4
aI8
aI20
aI17
aI10
aI34
aI31
aI29
aI27
asS'EN-verb'
p107
(lp108
I0
aI0
aI0
aI0
aI0
aI0
aI0
aI0
aI0
aI0
aI0
aI0
aI0
aI0
aI0
aI0
aI0
aI0
aI1
aI1
asS'EN-verb_suffix'
p109
(lp110
I0
aI0
aI0
aI0
aI0
aI0
aI0
aI0
aI0
aI2
aI7
aI9
aI5
aI7
aI7
aI8
aI6
aI5
aI6
aI8
asS'inter-word switch-COG'
p111
(lp112
I0
aI5
aI17
aI13
aI23
aI34
aI23
aI29
aI21
aI28
aI19
aI20
aI25
aI27
aI26
aI20
aI19
aI23
aI23
aI18
asS'noun-ENES'
p113
(lp114
I0
aI1
aI2
aI4
aI3
aI4
aI8
aI5
aI7
aI6
aI4
aI5
aI6
aI5
aI6
aI7
aI2
aI3
aI5
aI3
asS'EN-ing'
p115
(lp116
I0
aI0
aI0
aI0
aI0
aI0
aI0
aI0
aI0
aI0
aI0
aI0
aI0
aI0
aI0
aI1
aI1
aI1
aI1
aI2
asS'verb-COG'
p117
(lp118
I0
aI2
aI1
aI0
aI0
aI3
aI4
aI2
aI3
aI5
aI5
aI6
aI5
aI3
aI3
aI3
aI3
aI4
aI6
aI5
asS'to-COG'
p119
(lp120
I0
aI0
aI0
aI0
aI0
aI0
aI0
aI0
aI0
aI1
aI0
aI0
aI0
aI0
aI0
aI0
aI0
aI0
aI0
aI0
asS'EN-det'
p121
(lp122
I0
aI0
aI0
aI0
aI0
aI1
aI2
aI2
aI1
aI4
aI2
aI2
aI1
aI2
aI2
aI1
aI1
aI0
aI0
aI2
asS'ES-inter-word switch'
p123
(lp124
I0
aI8
aI32
aI19
aI40
aI66
aI43
aI54
aI40
aI44
aI31
aI36
aI44
aI46
aI48
aI38
aI39
aI42
aI43
aI35
asS'ES-to'
p125
(lp126
I0
aI0
aI0
aI0
aI0
aI0
aI0
aI0
aI0
aI3
aI0
aI1
aI2
aI2
aI2
aI2
aI0
aI0
aI1
aI1
asS'alternational CS-ENES'
p127
(lp128
I0
aI14
aI56
aI60
aI87
aI143
aI152
aI162
aI138
aI177
aI129
aI135
aI154
aI164
aI163
aI147
aI120
aI145
aI141
aI106
asS'EN-inter-word switch'
p129
(lp130
I0
aI0
aI0
aI0
aI0
aI1
aI0
aI1
aI1
aI1
aI1
aI0
aI1
aI2
aI1
aI0
aI7
aI6
aI6
aI6
asS'inter-word switch-ENES'
p131
(lp132
I0
aI3
aI15
aI6
aI17
aI33
aI20
aI26
aI20
aI17
aI13
aI16
aI20
aI21
aI23
aI18
aI27
aI25
aI26
aI23
asS'ing-COG'
p133
(lp134
I0
aI0
aI2
aI2
aI1
aI1
aI1
aI5
aI7
aI0
aI4
aI1
aI1
aI2
aI0
aI4
aI3
aI2
aI3
aI3
asS'ing-ENES'
p135
(lp136
I0
aI0
aI3
aI5
aI3
aI1
aI4
aI7
aI11
aI1
aI3
aI6
aI9
aI10
aI6
aI8
aI17
aI16
aI17
aI25
asS'noun-COG'
p137
(lp138
I0
aI0
aI0
aI2
aI2
aI1
aI2
aI0
aI3
aI1
aI2
aI1
aI1
aI1
aI1
aI1
aI4
aI1
aI2
aI1
asS'ES-det'
p139
(lp140
I0
aI2
aI5
aI6
aI8
aI4
aI7
aI9
aI11
aI10
aI20
aI18
aI27
aI33
aI21
aI31
aI31
aI28
aI28
aI31
asS'ES-verb_suffix'
p141
(lp142
I0
aI7
aI21
aI20
aI17
aI19
aI36
aI45
aI35
aI21
aI15
aI15
aI11
aI8
aI12
aI11
aI17
aI10
aI11
aI14
asS'det-COG'
p143
(lp144
I0
aI2
aI3
aI3
aI5
aI5
aI6
aI7
aI8
aI8
aI16
aI15
aI22
aI26
aI18
aI23
aI26
aI21
aI19
aI23
asS'aux-COG'
p145
(lp146
I0
aI0
aI0
aI0
aI0
aI0
aI2
aI2
aI3
aI0
aI1
aI2
aI5
aI8
aI7
aI3
aI18
aI18
aI17
aI17
asS'ES-alternational CS'
p147
(lp148
I0
aI35
aI106
aI107
aI148
aI232
aI215
aI233
aI182
aI248
aI190
aI196
aI217
aI231
aI228
aI211
aI165
aI204
aI198
aI148
asS'det-ENES'
p149
(lp150
I0
aI0
aI2
aI3
aI3
aI0
aI3
aI4
aI4
aI6
aI6
aI5
aI6
aI9
aI5
aI9
aI6
aI7
aI9
aI10
asS'aux-ENES'
p151
(lp152
I0
aI0
aI0
aI0
aI0
aI0
aI2
aI2
aI2
aI1
aI2
aI2
aI3
aI12
aI10
aI7
aI16
aI13
aI12
aI10
asssS'correct_pos'
p153
(dp154
g3
(lp155
I0
aI964
aI960
aI931
aI926
aI940
aI937
aI954
aI942
aI955
aI951
aI946
aI946
aI957
aI960
aI956
aI962
aI960
aI964
aI967
asg5
(lp156
I0
aI1923
aI1932
aI1884
aI1862
aI1886
aI1861
aI1893
aI1901
aI1903
aI1908
aI1908
aI1921
aI1934
aI1923
aI1923
aI1930
aI1935
aI1933
aI1934
assS'mse'
p157
(dp158
sS'pronoun_errors_flex'
p159
(dp160
g3
(lp161
I0
aI0
aI0
aI0
aI0
aI0
aI0
aI0
aI0
aI0
aI0
aI0
aI0
aI0
aI0
aI0
aI0
aI0
aI0
aI0
asg5
(lp162
I0
aI0
aI0
aI0
aI0
aI0
aI0
aI0
aI0
aI0
aI0
aI0
aI0
aI0
aI0
aI0
aI0
aI0
aI0
aI0
assS'pronoun_errors'
p163
(dp164
g3
(lp165
I0
aI0
aI0
aI0
aI0
aI0
aI0
aI0
aI0
aI0
aI0
aI0
aI0
aI0
aI0
aI0
aI0
aI0
aI0
aI0
asg5
(lp166
I0
aI0
aI0
aI0
aI0
aI0
aI0
aI0
aI0
aI0
aI0
aI0
aI0
aI0
aI0
aI0
aI0
aI0
aI0
aI0
ass.